; Function Attrs: mustprogress nounwind uwtable
define void @_ZN7glslang18RemoveAllTreeNodesEP11TIntermNode(ptr noundef %0) local_unnamed_addr #0 {
  %2 = alloca %"struct.glslang::TRemoveTraverser", align 8
  %3 = getelementptr inbounds i8, ptr %2, i64 8
  store i8 0, ptr %3, align 8
  %4 = getelementptr inbounds i8, ptr %2, i64 9
  store i8 0, ptr %4, align 1
  %5 = getelementptr inbounds i8, ptr %2, i64 10
  store i8 1, ptr %5, align 2
  %6 = getelementptr inbounds i8, ptr %2, i64 11
  %7 = getelementptr inbounds i8, ptr %2, i64 24
  call void @llvm.memset.p0.i64(ptr noundef nonnull align 1 dereferenceable(9) %6, i8 0, i64 9, i1 false)
  %8 = tail call noundef nonnull align 8 dereferenceable(96) ptr @_ZN7glslang22GetThreadPoolAllocatorEv() #3
  store ptr %8, ptr %7, align 8
  %9 = getelementptr inbounds i8, ptr %2, i64 32
  call void @llvm.memset.p0.i64(ptr noundef nonnull align 8 dereferenceable(24) %9, i8 0, i64 24, i1 false)
  store ptr getelementptr inbounds inrange(-16, 88) (i8, ptr @_ZTVN7glslang16TRemoveTraverserE, i64 16), ptr %2, align 8
  %10 = load ptr, ptr %0, align 8
  %11 = getelementptr inbounds i8, ptr %10, i64 16
  %12 = load ptr, ptr %11, align 8
  call void %12(ptr noundef nonnull align 8 dereferenceable(32) %0, ptr noundef nonnull %2) #3
  ret void
}